target datalayout = "e-m:e-p270:32:32-p271:32:32-p272:64:64-i64:64-i128:128-f80:128-n8:16:32:64-S128"
target triple = "x86_64-pc-linux-gnu"

%struct.block = type { [4 x i16], [64 x i8] }
%struct.block_q8_0 = type { i16, [32 x i8] }

@ggml_table_f32_f16 = external global [65536 x float], align 16

; Function Attrs: inlinehint mustprogress nounwind uwtable
define internal noundef float @_ZL24ggml_lookup_fp16_to_fp32t(i16 noundef zeroext %0) #6 {
  %2 = alloca i16, align 2
  %3 = alloca i16, align 2
  store i16 %0, ptr %2, align 2, !tbaa !23
  call void @llvm.lifetime.start.p0(i64 2, ptr %3) #23
  call void @llvm.memcpy.p0.p0.i64(ptr align 2 %3, ptr align 2 %2, i64 2, i1 false)
  %4 = load i16, ptr %3, align 2, !tbaa !23
  %5 = zext i16 %4 to i64
  %6 = getelementptr inbounds nuw [65536 x float], ptr @ggml_table_f32_f16, i64 0, i64 %5
  %7 = load float, ptr %6, align 4, !tbaa !55
  call void @llvm.lifetime.end.p0(i64 2, ptr %3) #23
  ret float %7
}

; Function Attrs: mustprogress nounwind uwtable
define internal void @_ZL23ggml_gemv_q4_0_4x8_q8_0iPfmPKvS1_ii(i32 noundef %0, ptr noalias noundef %1, i64 noundef %2, ptr noalias noundef %3, ptr noalias noundef %4, i32 noundef %5, i32 noundef %6) #5 {
  %8 = alloca i32, align 4
  %9 = alloca ptr, align 8
  %10 = alloca i64, align 8
  %11 = alloca ptr, align 8
  %12 = alloca ptr, align 8
  %13 = alloca i32, align 4
  %14 = alloca i32, align 4
  %15 = alloca i32, align 4
  %16 = alloca i32, align 4
  %17 = alloca i32, align 4
  %18 = alloca i32, align 4
  %19 = alloca [4 x float], align 16
  %20 = alloca i32, align 4
  %21 = alloca ptr, align 8
  %22 = alloca i32, align 4
  %23 = alloca i32, align 4
  %24 = alloca ptr, align 8
  %25 = alloca i32, align 4
  %26 = alloca i32, align 4
  %27 = alloca i32, align 4
  %28 = alloca i32, align 4
  %29 = alloca i32, align 4
  %30 = alloca i32, align 4
  %31 = alloca i32, align 4
  %32 = alloca i32, align 4
  store i32 %0, ptr %8, align 4, !tbaa !12
  store ptr %1, ptr %9, align 8, !tbaa !53
  store i64 %2, ptr %10, align 8, !tbaa !10
  store ptr %3, ptr %11, align 8, !tbaa !9
  store ptr %4, ptr %12, align 8, !tbaa !9
  store i32 %5, ptr %13, align 4, !tbaa !12
  store i32 %6, ptr %14, align 4, !tbaa !12
  call void @llvm.lifetime.start.p0(i64 4, ptr %15) #23
  store i32 32, ptr %15, align 4, !tbaa !12
  call void @llvm.lifetime.start.p0(i64 4, ptr %16) #23
  %33 = load i32, ptr %8, align 4, !tbaa !12
  %34 = sdiv i32 %33, 32
  store i32 %34, ptr %16, align 4, !tbaa !12
  call void @llvm.lifetime.start.p0(i64 4, ptr %17) #23
  store i32 4, ptr %17, align 4, !tbaa !12
  call void @llvm.lifetime.start.p0(i64 4, ptr %18) #23
  store i32 8, ptr %18, align 4, !tbaa !12
  call void @llvm.lifetime.start.p0(i64 16, ptr %19) #23
  call void @llvm.lifetime.start.p0(i64 4, ptr %20) #23
  call void @llvm.lifetime.start.p0(i64 8, ptr %21) #23
  %35 = load ptr, ptr %12, align 8, !tbaa !9
  store ptr %35, ptr %21, align 8, !tbaa !9
  call void @llvm.lifetime.start.p0(i64 4, ptr %22) #23
  store i32 0, ptr %22, align 4, !tbaa !12
  br label %36

36:                                               ; preds = %218, %7
  %37 = load i32, ptr %22, align 4, !tbaa !12
  %38 = load i32, ptr %14, align 4, !tbaa !12
  %39 = sdiv i32 %38, 4
  %40 = icmp slt i32 %37, %39
  br i1 %40, label %42, label %41

41:                                               ; preds = %36
  store i32 2, ptr %23, align 4
  call void @llvm.lifetime.end.p0(i64 4, ptr %22) #23
  br label %221

42:                                               ; preds = %36
  call void @llvm.lifetime.start.p0(i64 8, ptr %24) #23
  %43 = load ptr, ptr %11, align 8, !tbaa !9
  %44 = load i32, ptr %22, align 4, !tbaa !12
  %45 = load i32, ptr %16, align 4, !tbaa !12
  %46 = mul nsw i32 %44, %45
  %47 = sext i32 %46 to i64
  %48 = getelementptr inbounds %struct.block, ptr %43, i64 %47
  store ptr %48, ptr %24, align 8, !tbaa !20
  call void @llvm.lifetime.start.p0(i64 4, ptr %25) #23
  store i32 0, ptr %25, align 4, !tbaa !12
  br label %49

49:                                               ; preds = %57, %42
  %50 = load i32, ptr %25, align 4, !tbaa !12
  %51 = icmp slt i32 %50, 4
  br i1 %51, label %53, label %52

52:                                               ; preds = %49
  store i32 5, ptr %23, align 4
  call void @llvm.lifetime.end.p0(i64 4, ptr %25) #23
  br label %60

53:                                               ; preds = %49
  %54 = load i32, ptr %25, align 4, !tbaa !12
  %55 = sext i32 %54 to i64
  %56 = getelementptr inbounds [4 x float], ptr %19, i64 0, i64 %55
  store float 0.000000e+00, ptr %56, align 4, !tbaa !55
  br label %57

57:                                               ; preds = %53
  %58 = load i32, ptr %25, align 4, !tbaa !12
  %59 = add nsw i32 %58, 1
  store i32 %59, ptr %25, align 4, !tbaa !12
  br label %49, !llvm.loop !66

60:                                               ; preds = %52
  call void @llvm.lifetime.start.p0(i64 4, ptr %26) #23
  store i32 0, ptr %26, align 4, !tbaa !12
  br label %61

61:                                               ; preds = %194, %60
  %62 = load i32, ptr %26, align 4, !tbaa !12
  %63 = load i32, ptr %16, align 4, !tbaa !12
  %64 = icmp slt i32 %62, %63
  br i1 %64, label %66, label %65

65:                                               ; preds = %61
  store i32 8, ptr %23, align 4
  call void @llvm.lifetime.end.p0(i64 4, ptr %26) #23
  br label %197

66:                                               ; preds = %61
  call void @llvm.lifetime.start.p0(i64 4, ptr %27) #23
  store i32 0, ptr %27, align 4, !tbaa !12
  br label %67

67:                                               ; preds = %190, %66
  %68 = load i32, ptr %27, align 4, !tbaa !12
  %69 = icmp slt i32 %68, 2
  br i1 %69, label %71, label %70

70:                                               ; preds = %67
  store i32 11, ptr %23, align 4
  call void @llvm.lifetime.end.p0(i64 4, ptr %27) #23
  br label %193

71:                                               ; preds = %67
  call void @llvm.lifetime.start.p0(i64 4, ptr %28) #23
  store i32 0, ptr %28, align 4, !tbaa !12
  br label %72

72:                                               ; preds = %186, %71
  %73 = load i32, ptr %28, align 4, !tbaa !12
  %74 = icmp slt i32 %73, 4
  br i1 %74, label %76, label %75

75:                                               ; preds = %72
  store i32 14, ptr %23, align 4
  call void @llvm.lifetime.end.p0(i64 4, ptr %28) #23
  br label %189

76:                                               ; preds = %72
  store i32 0, ptr %20, align 4, !tbaa !12
  call void @llvm.lifetime.start.p0(i64 4, ptr %29) #23
  store i32 0, ptr %29, align 4, !tbaa !12
  br label %77

77:                                               ; preds = %157, %76
  %78 = load i32, ptr %29, align 4, !tbaa !12
  %79 = icmp slt i32 %78, 8
  br i1 %79, label %81, label %80

80:                                               ; preds = %77
  store i32 17, ptr %23, align 4
  call void @llvm.lifetime.end.p0(i64 4, ptr %29) #23
  br label %160

81:                                               ; preds = %77
  call void @llvm.lifetime.start.p0(i64 4, ptr %30) #23
  %82 = load ptr, ptr %24, align 8, !tbaa !20
  %83 = load i32, ptr %26, align 4, !tbaa !12
  %84 = sext i32 %83 to i64
  %85 = getelementptr inbounds %struct.block, ptr %82, i64 %84
  %86 = getelementptr inbounds nuw %struct.block, ptr %85, i32 0, i32 1
  %87 = load i32, ptr %27, align 4, !tbaa !12
  %88 = mul nsw i32 %87, 4
  %89 = mul nsw i32 %88, 8
  %90 = load i32, ptr %28, align 4, !tbaa !12
  %91 = mul nsw i32 %90, 8
  %92 = add nsw i32 %89, %91
  %93 = load i32, ptr %29, align 4, !tbaa !12
  %94 = add nsw i32 %92, %93
  %95 = sext i32 %94 to i64
  %96 = getelementptr inbounds [64 x i8], ptr %86, i64 0, i64 %95
  %97 = load i8, ptr %96, align 1, !tbaa !25
  %98 = sext i8 %97 to i32
  %99 = shl i32 %98, 4
  %100 = trunc i32 %99 to i8
  %101 = sext i8 %100 to i32
  store i32 %101, ptr %30, align 4, !tbaa !12
  call void @llvm.lifetime.start.p0(i64 4, ptr %31) #23
  %102 = load ptr, ptr %24, align 8, !tbaa !20
  %103 = load i32, ptr %26, align 4, !tbaa !12
  %104 = sext i32 %103 to i64
  %105 = getelementptr inbounds %struct.block, ptr %102, i64 %104
  %106 = getelementptr inbounds nuw %struct.block, ptr %105, i32 0, i32 1
  %107 = load i32, ptr %27, align 4, !tbaa !12
  %108 = mul nsw i32 %107, 4
  %109 = mul nsw i32 %108, 8
  %110 = load i32, ptr %28, align 4, !tbaa !12
  %111 = mul nsw i32 %110, 8
  %112 = add nsw i32 %109, %111
  %113 = load i32, ptr %29, align 4, !tbaa !12
  %114 = add nsw i32 %112, %113
  %115 = sext i32 %114 to i64
  %116 = getelementptr inbounds [64 x i8], ptr %106, i64 0, i64 %115
  %117 = load i8, ptr %116, align 1, !tbaa !25
  %118 = sext i8 %117 to i32
  %119 = and i32 %118, 240
  %120 = trunc i32 %119 to i8
  %121 = sext i8 %120 to i32
  store i32 %121, ptr %31, align 4, !tbaa !12
  %122 = load i32, ptr %30, align 4, !tbaa !12
  %123 = load ptr, ptr %21, align 8, !tbaa !9
  %124 = load i32, ptr %26, align 4, !tbaa !12
  %125 = sext i32 %124 to i64
  %126 = getelementptr inbounds %struct.block_q8_0, ptr %123, i64 %125
  %127 = getelementptr inbounds nuw %struct.block_q8_0, ptr %126, i32 0, i32 1
  %128 = load i32, ptr %27, align 4, !tbaa !12
  %129 = mul nsw i32 %128, 8
  %130 = load i32, ptr %29, align 4, !tbaa !12
  %131 = add nsw i32 %129, %130
  %132 = sext i32 %131 to i64
  %133 = getelementptr inbounds [32 x i8], ptr %127, i64 0, i64 %132
  %134 = load i8, ptr %133, align 1, !tbaa !25
  %135 = sext i8 %134 to i32
  %136 = mul nsw i32 %122, %135
  %137 = load i32, ptr %31, align 4, !tbaa !12
  %138 = load ptr, ptr %21, align 8, !tbaa !9
  %139 = load i32, ptr %26, align 4, !tbaa !12
  %140 = sext i32 %139 to i64
  %141 = getelementptr inbounds %struct.block_q8_0, ptr %138, i64 %140
  %142 = getelementptr inbounds nuw %struct.block_q8_0, ptr %141, i32 0, i32 1
  %143 = load i32, ptr %27, align 4, !tbaa !12
  %144 = mul nsw i32 %143, 8
  %145 = load i32, ptr %29, align 4, !tbaa !12
  %146 = add nsw i32 %144, %145
  %147 = add nsw i32 %146, 16
  %148 = sext i32 %147 to i64
  %149 = getelementptr inbounds [32 x i8], ptr %142, i64 0, i64 %148
  %150 = load i8, ptr %149, align 1, !tbaa !25
  %151 = sext i8 %150 to i32
  %152 = mul nsw i32 %137, %151
  %153 = add nsw i32 %136, %152
  %154 = ashr i32 %153, 4
  %155 = load i32, ptr %20, align 4, !tbaa !12
  %156 = add nsw i32 %155, %154
  store i32 %156, ptr %20, align 4, !tbaa !12
  call void @llvm.lifetime.end.p0(i64 4, ptr %31) #23
  call void @llvm.lifetime.end.p0(i64 4, ptr %30) #23
  br label %157

157:                                              ; preds = %81
  %158 = load i32, ptr %29, align 4, !tbaa !12
  %159 = add nsw i32 %158, 1
  store i32 %159, ptr %29, align 4, !tbaa !12
  br label %77, !llvm.loop !67

160:                                              ; preds = %80
  %161 = load i32, ptr %20, align 4, !tbaa !12
  %162 = sitofp i32 %161 to float
  %163 = load ptr, ptr %24, align 8, !tbaa !20
  %164 = load i32, ptr %26, align 4, !tbaa !12
  %165 = sext i32 %164 to i64
  %166 = getelementptr inbounds %struct.block, ptr %163, i64 %165
  %167 = getelementptr inbounds nuw %struct.block, ptr %166, i32 0, i32 0
  %168 = load i32, ptr %28, align 4, !tbaa !12
  %169 = sext i32 %168 to i64
  %170 = getelementptr inbounds [4 x i16], ptr %167, i64 0, i64 %169
  %171 = load i16, ptr %170, align 2, !tbaa !23
  %172 = call noundef float @_ZL24ggml_lookup_fp16_to_fp32t(i16 noundef zeroext %171)
  %173 = fmul float %162, %172
  %174 = load ptr, ptr %21, align 8, !tbaa !9
  %175 = load i32, ptr %26, align 4, !tbaa !12
  %176 = sext i32 %175 to i64
  %177 = getelementptr inbounds %struct.block_q8_0, ptr %174, i64 %176
  %178 = getelementptr inbounds nuw %struct.block_q8_0, ptr %177, i32 0, i32 0
  %179 = load i16, ptr %178, align 2, !tbaa !59
  %180 = call noundef float @_ZL24ggml_lookup_fp16_to_fp32t(i16 noundef zeroext %179)
  %181 = load i32, ptr %28, align 4, !tbaa !12
  %182 = sext i32 %181 to i64
  %183 = getelementptr inbounds [4 x float], ptr %19, i64 0, i64 %182
  %184 = load float, ptr %183, align 4, !tbaa !55
  %185 = call float @llvm.fmuladd.f32(float %173, float %180, float %184)
  store float %185, ptr %183, align 4, !tbaa !55
  br label %186

186:                                              ; preds = %160
  %187 = load i32, ptr %28, align 4, !tbaa !12
  %188 = add nsw i32 %187, 1
  store i32 %188, ptr %28, align 4, !tbaa !12
  br label %72, !llvm.loop !68

189:                                              ; preds = %75
  br label %190

190:                                              ; preds = %189
  %191 = load i32, ptr %27, align 4, !tbaa !12
  %192 = add nsw i32 %191, 1
  store i32 %192, ptr %27, align 4, !tbaa !12
  br label %67, !llvm.loop !69

193:                                              ; preds = %70
  br label %194

194:                                              ; preds = %193
  %195 = load i32, ptr %26, align 4, !tbaa !12
  %196 = add nsw i32 %195, 1
  store i32 %196, ptr %26, align 4, !tbaa !12
  br label %61, !llvm.loop !70

197:                                              ; preds = %65
  call void @llvm.lifetime.start.p0(i64 4, ptr %32) #23
  store i32 0, ptr %32, align 4, !tbaa !12
  br label %198

198:                                              ; preds = %214, %197
  %199 = load i32, ptr %32, align 4, !tbaa !12
  %200 = icmp slt i32 %199, 4
  br i1 %200, label %202, label %201

201:                                              ; preds = %198
  store i32 20, ptr %23, align 4
  call void @llvm.lifetime.end.p0(i64 4, ptr %32) #23
  br label %217

202:                                              ; preds = %198
  %203 = load i32, ptr %32, align 4, !tbaa !12
  %204 = sext i32 %203 to i64
  %205 = getelementptr inbounds [4 x float], ptr %19, i64 0, i64 %204
  %206 = load float, ptr %205, align 4, !tbaa !55
  %207 = load ptr, ptr %9, align 8, !tbaa !53
  %208 = load i32, ptr %22, align 4, !tbaa !12
  %209 = mul nsw i32 %208, 4
  %210 = load i32, ptr %32, align 4, !tbaa !12
  %211 = add nsw i32 %209, %210
  %212 = sext i32 %211 to i64
  %213 = getelementptr inbounds float, ptr %207, i64 %212
  store float %206, ptr %213, align 4, !tbaa !55
  br label %214

214:                                              ; preds = %202
  %215 = load i32, ptr %32, align 4, !tbaa !12
  %216 = add nsw i32 %215, 1
  store i32 %216, ptr %32, align 4, !tbaa !12
  br label %198, !llvm.loop !71

217:                                              ; preds = %201
  call void @llvm.lifetime.end.p0(i64 8, ptr %24) #23
  br label %218

218:                                              ; preds = %217
  %219 = load i32, ptr %22, align 4, !tbaa !12
  %220 = add nsw i32 %219, 1
  store i32 %220, ptr %22, align 4, !tbaa !12
  br label %36, !llvm.loop !72

221:                                              ; preds = %41
  call void @llvm.lifetime.end.p0(i64 8, ptr %21) #23
  call void @llvm.lifetime.end.p0(i64 4, ptr %20) #23
  call void @llvm.lifetime.end.p0(i64 16, ptr %19) #23
  call void @llvm.lifetime.end.p0(i64 4, ptr %18) #23
  call void @llvm.lifetime.end.p0(i64 4, ptr %17) #23
  call void @llvm.lifetime.end.p0(i64 4, ptr %16) #23
  call void @llvm.lifetime.end.p0(i64 4, ptr %15) #23
  ret void
}

; Function Attrs: mustprogress uwtable
define void @_ZN4ggml3cpu7aarch644gemvI10block_q4_0Ll8ELl4EEEviPfmPKvS6_ii(i32 noundef %0, ptr noundef %1, i64 noundef %2, ptr noundef %3, ptr noundef %4, i32 noundef %5, i32 noundef %6) #0 {
  %8 = alloca i32, align 4
  %9 = alloca ptr, align 8
  %10 = alloca i64, align 8
  %11 = alloca ptr, align 8
  %12 = alloca ptr, align 8
  %13 = alloca i32, align 4
  %14 = alloca i32, align 4
  store i32 %0, ptr %8, align 4, !tbaa !12
  store ptr %1, ptr %9, align 8, !tbaa !53
  store i64 %2, ptr %10, align 8, !tbaa !10
  store ptr %3, ptr %11, align 8, !tbaa !9
  store ptr %4, ptr %12, align 8, !tbaa !9
  store i32 %5, ptr %13, align 4, !tbaa !12
  store i32 %6, ptr %14, align 4, !tbaa !12
  %15 = load i32, ptr %8, align 4, !tbaa !12
  %16 = load ptr, ptr %9, align 8, !tbaa !53
  %17 = load i64, ptr %10, align 8, !tbaa !10
  %18 = load ptr, ptr %11, align 8, !tbaa !9
  %19 = load ptr, ptr %12, align 8, !tbaa !9
  %20 = load i32, ptr %13, align 4, !tbaa !12
  %21 = load i32, ptr %14, align 4, !tbaa !12
  call void @_ZL23ggml_gemv_q4_0_4x8_q8_0iPfmPKvS1_ii(i32 noundef %15, ptr noundef %16, i64 noundef %17, ptr noundef %18, ptr noundef %19, i32 noundef %20, i32 noundef %21)
  ret void
}