; Function Attrs: mustprogress nofree norecurse nosync nounwind memory(read, argmem: readwrite, inaccessiblemem: readwrite) uwtable
define void @_ZN4ggml3cpu7aarch644gemvI10block_q4_0Ll8ELl4EEEviPfmPKvS6_ii(i32 noundef %0, ptr noundef writeonly captures(none) %1, i64 noundef %2, ptr noundef readonly captures(none) %3, ptr noundef readonly captures(none) %4, i32 noundef %5, i32 noundef %6) local_unnamed_addr #5 {
  %8 = alloca [4 x float], align 16
  tail call void @llvm.experimental.noalias.scope.decl(metadata !81)
  tail call void @llvm.experimental.noalias.scope.decl(metadata !84)
  tail call void @llvm.experimental.noalias.scope.decl(metadata !86)
  %9 = sdiv i32 %0, 32
  call void @llvm.lifetime.start.p0(i64 16, ptr nonnull %8) #23, !noalias !88
  %10 = sdiv i32 %6, 4
  %11 = icmp sgt i32 %6, 3
  br i1 %11, label %.lr.ph.i, label %_ZL23ggml_gemv_q4_0_4x8_q8_0iPfmPKvS1_ii.exit

.lr.ph.i:                                         ; preds = %7
  %12 = icmp sgt i32 %0, 31
  br i1 %12, label %.lr.ph.split.us.preheader.i, label %.lr.ph.split.preheader.i

.lr.ph.split.preheader.i:                         ; preds = %.lr.ph.i
  %wide.trip.count.i = zext nneg i32 %10 to i64
  %13 = shl nuw nsw i64 %wide.trip.count.i, 4
  tail call void @llvm.memset.p0.i64(ptr align 4 %1, i8 0, i64 %13, i1 false), !alias.scope !81, !noalias !89
  br label %_ZL23ggml_gemv_q4_0_4x8_q8_0iPfmPKvS1_ii.exit

.lr.ph.split.us.preheader.i:                      ; preds = %.lr.ph.i
  %14 = zext nneg i32 %9 to i64
  %wide.trip.count98.i = zext nneg i32 %10 to i64
  br label %.lr.ph.split.us.i

.lr.ph.split.us.i:                                ; preds = %..preheader62_crit_edge.us.i, %.lr.ph.split.us.preheader.i
  %indvar91.i = phi i64 [ 0, %.lr.ph.split.us.preheader.i ], [ %indvar.next92.i, %..preheader62_crit_edge.us.i ]
  %15 = shl nuw nsw i64 %indvar91.i, 4
  %16 = mul nuw nsw i64 %indvar91.i, %14
  call void @llvm.memset.p0.i64(ptr noundef nonnull align 16 dereferenceable(16) %8, i8 0, i64 16, i1 false), !tbaa !70, !noalias !88
  %17 = getelementptr inbounds nuw %struct.block, ptr %3, i64 %16
  br label %.preheader61.us.i

18:                                               ; preds = %19
  %indvars.iv.next87.i = add nuw nsw i64 %indvars.iv86.i, 1
  %exitcond90.not.i = icmp eq i64 %indvars.iv.next87.i, %14
  br i1 %exitcond90.not.i, label %..preheader62_crit_edge.us.i, label %.preheader61.us.i, !llvm.loop !90

19:                                               ; preds = %20
  br i1 %54, label %.preheader60.us.i, label %18, !llvm.loop !91

20:                                               ; preds = %31
  %21 = sitofp i32 %51 to float
  %22 = getelementptr inbounds nuw [4 x i16], ptr %57, i64 0, i64 %indvars.iv79.i
  %23 = load i16, ptr %22, align 2, !tbaa !23, !alias.scope !84, !noalias !92
  %24 = zext i16 %23 to i64
  %25 = getelementptr inbounds nuw [65536 x float], ptr @ggml_table_f32_f16, i64 0, i64 %24
  %26 = load float, ptr %25, align 4, !tbaa !70, !noalias !88
  %27 = fmul float %26, %21
  %28 = getelementptr inbounds nuw [4 x float], ptr %8, i64 0, i64 %indvars.iv79.i
  %29 = load float, ptr %28, align 4, !tbaa !70, !noalias !88
  %30 = tail call float @llvm.fmuladd.f32(float %27, float %62, float %29)
  store float %30, ptr %28, align 4, !tbaa !70, !noalias !88
  %indvars.iv.next80.i = add nuw nsw i64 %indvars.iv79.i, 1
  %exitcond82.not.i = icmp eq i64 %indvars.iv.next80.i, 4
  br i1 %exitcond82.not.i, label %19, label %.preheader.us.i, !llvm.loop !93

31:                                               ; preds = %.preheader.us.i, %31
  %indvars.iv.i = phi i64 [ 0, %.preheader.us.i ], [ %indvars.iv.next.i, %31 ]
  %.05366.us.i = phi i32 [ 0, %.preheader.us.i ], [ %51, %31 ]
  %32 = add nuw nsw i64 %53, %indvars.iv.i
  %33 = getelementptr inbounds nuw %struct.block, ptr %17, i64 %indvars.iv86.i, i32 1, i64 %32
  %34 = load i8, ptr %33, align 1, !tbaa !29, !alias.scope !84, !noalias !92
  %35 = shl i8 %34, 4
  %36 = sext i8 %35 to i32
  %37 = and i8 %34, -16
  %38 = sext i8 %37 to i32
  %39 = add nuw nsw i64 %indvars.iv.i, %56
  %40 = getelementptr inbounds nuw %struct.block_q8_0, ptr %4, i64 %indvars.iv86.i, i32 1, i64 %39
  %41 = load i8, ptr %40, align 1, !tbaa !29, !alias.scope !86, !noalias !94
  %42 = sext i8 %41 to i32
  %43 = mul nsw i32 %36, %42
  %44 = or disjoint i64 %39, 16
  %45 = getelementptr inbounds nuw %struct.block_q8_0, ptr %4, i64 %indvars.iv86.i, i32 1, i64 %44
  %46 = load i8, ptr %45, align 1, !tbaa !29, !alias.scope !86, !noalias !94
  %47 = sext i8 %46 to i32
  %48 = mul nsw i32 %47, %38
  %49 = add nsw i32 %48, %43
  %50 = ashr exact i32 %49, 4
  %51 = add nsw i32 %50, %.05366.us.i
  %indvars.iv.next.i = add nuw nsw i64 %indvars.iv.i, 1
  %exitcond78.not.i = icmp eq i64 %indvars.iv.next.i, 8
  br i1 %exitcond78.not.i, label %20, label %31, !llvm.loop !95

.preheader.us.i:                                  ; preds = %.preheader60.us.i, %20
  %indvars.iv79.i = phi i64 [ 0, %.preheader60.us.i ], [ %indvars.iv.next80.i, %20 ]
  %52 = shl nuw nsw i64 %indvars.iv79.i, 3
  %53 = add nuw nsw i64 %52, %55
  br label %31

.preheader60.us.i:                                ; preds = %.preheader61.us.i, %19
  %54 = phi i1 [ true, %.preheader61.us.i ], [ false, %19 ]
  %indvars.iv83.i = phi i64 [ 0, %.preheader61.us.i ], [ 1, %19 ]
  %55 = shl nuw nsw i64 %indvars.iv83.i, 5
  %56 = shl nuw nsw i64 %indvars.iv83.i, 3
  br label %.preheader.us.i

.preheader61.us.i:                                ; preds = %18, %.lr.ph.split.us.i
  %indvars.iv86.i = phi i64 [ 0, %.lr.ph.split.us.i ], [ %indvars.iv.next87.i, %18 ]
  %57 = getelementptr inbounds nuw %struct.block, ptr %17, i64 %indvars.iv86.i
  %58 = getelementptr inbounds nuw %struct.block_q8_0, ptr %4, i64 %indvars.iv86.i
  %59 = load i16, ptr %58, align 2, !tbaa !78, !alias.scope !86, !noalias !94
  %60 = zext i16 %59 to i64
  %61 = getelementptr inbounds nuw [65536 x float], ptr @ggml_table_f32_f16, i64 0, i64 %60
  %62 = load float, ptr %61, align 4, !tbaa !70, !noalias !88
  br label %.preheader60.us.i

..preheader62_crit_edge.us.i:                     ; preds = %18
  %scevgep93.i = getelementptr i8, ptr %1, i64 %15
  call void @llvm.memcpy.p0.p0.i64(ptr noundef nonnull align 4 dereferenceable(16) %scevgep93.i, ptr noundef nonnull align 16 dereferenceable(16) %8, i64 16, i1 false), !tbaa !70, !noalias !89
  %indvar.next92.i = add nuw nsw i64 %indvar91.i, 1
  %exitcond99.not.i = icmp eq i64 %indvar.next92.i, %wide.trip.count98.i
  br i1 %exitcond99.not.i, label %_ZL23ggml_gemv_q4_0_4x8_q8_0iPfmPKvS1_ii.exit, label %.lr.ph.split.us.i, !llvm.loop !96

_ZL23ggml_gemv_q4_0_4x8_q8_0iPfmPKvS1_ii.exit:    ; preds = %..preheader62_crit_edge.us.i, %.lr.ph.split.preheader.i, %7
  call void @llvm.lifetime.end.p0(i64 16, ptr nonnull %8) #23, !noalias !88
  ret void
}